target datalayout = "e-m:e-p270:32:32-p271:32:32-p272:64:64-i64:64-f80:128-n8:16:32:64-S128"
target triple = "x86_64-pc-linux-gnu"

@.str = private unnamed_addr constant [3 x i8] c"%d\00", align 1
@.str.1 = private unnamed_addr constant [3 x i8] c"%s\00", align 1
@.str.2 = private unnamed_addr constant [3 x i8] c"%c\00", align 1

; Function Attrs: noinline nounwind uwtable
define dso_local void @main() #0 {
  %1 = alloca i32, align 4
  %2 = alloca i32, align 4
  %3 = alloca i32, align 4
  %4 = alloca i32, align 4
  %5 = alloca i32, align 4
  %6 = alloca i32, align 4
  %7 = alloca i32, align 4
  %8 = alloca [100 x i8], align 16
  %9 = alloca [100 x i32], align 16
  %10 = alloca [100 x i8], align 16
  %11 = alloca [100 x i32], align 16
  %12 = call i32 (i8*, ...) @__isoc99_scanf(i8* getelementptr inbounds ([3 x i8], [3 x i8]* @.str, i64 0, i64 0), i32* %1)
  %13 = getelementptr inbounds [100 x i8], [100 x i8]* %8, i64 0, i64 0
  %14 = call i32 (i8*, ...) @__isoc99_scanf(i8* getelementptr inbounds ([3 x i8], [3 x i8]* @.str.1, i64 0, i64 0), i8* %13)
  %15 = call i32 (i8*, ...) @__isoc99_scanf(i8* getelementptr inbounds ([3 x i8], [3 x i8]* @.str, i64 0, i64 0), i32* %2)
  %16 = getelementptr inbounds [100 x i8], [100 x i8]* %8, i64 0, i64 0
  %17 = call i64 @strlen(i8* %16) #3
  %18 = trunc i64 %17 to i32
  store i32 %18, i32* %3, align 4
  store i32 0, i32* %4, align 4
  br label %19

19:                                               ; preds = %98, %0
  %20 = load i32, i32* %4, align 4
  %21 = load i32, i32* %3, align 4
  %22 = icmp slt i32 %20, %21
  br i1 %22, label %23, label %101

23:                                               ; preds = %19
  %24 = load i32, i32* %4, align 4
  %25 = sext i32 %24 to i64
  %26 = getelementptr inbounds [100 x i8], [100 x i8]* %8, i64 0, i64 %25
  %27 = load i8, i8* %26, align 1
  %28 = sext i8 %27 to i32
  %29 = icmp sge i32 %28, 65
  br i1 %29, label %30, label %48

30:                                               ; preds = %23
  %31 = load i32, i32* %4, align 4
  %32 = sext i32 %31 to i64
  %33 = getelementptr inbounds [100 x i8], [100 x i8]* %8, i64 0, i64 %32
  %34 = load i8, i8* %33, align 1
  %35 = sext i8 %34 to i32
  %36 = icmp sle i32 %35, 90
  br i1 %36, label %37, label %48

37:                                               ; preds = %30
  %38 = load i32, i32* %4, align 4
  %39 = sext i32 %38 to i64
  %40 = getelementptr inbounds [100 x i8], [100 x i8]* %8, i64 0, i64 %39
  %41 = load i8, i8* %40, align 1
  %42 = sext i8 %41 to i32
  %43 = add nsw i32 10, %42
  %44 = sub nsw i32 %43, 65
  %45 = load i32, i32* %4, align 4
  %46 = sext i32 %45 to i64
  %47 = getelementptr inbounds [100 x i32], [100 x i32]* %11, i64 0, i64 %46
  store i32 %44, i32* %47, align 4
  br label %48

48:                                               ; preds = %37, %30, %23
  %49 = load i32, i32* %4, align 4
  %50 = sext i32 %49 to i64
  %51 = getelementptr inbounds [100 x i8], [100 x i8]* %8, i64 0, i64 %50
  %52 = load i8, i8* %51, align 1
  %53 = sext i8 %52 to i32
  %54 = icmp sge i32 %53, 97
  br i1 %54, label %55, label %73

55:                                               ; preds = %48
  %56 = load i32, i32* %4, align 4
  %57 = sext i32 %56 to i64
  %58 = getelementptr inbounds [100 x i8], [100 x i8]* %8, i64 0, i64 %57
  %59 = load i8, i8* %58, align 1
  %60 = sext i8 %59 to i32
  %61 = icmp sle i32 %60, 122
  br i1 %61, label %62, label %73

62:                                               ; preds = %55
  %63 = load i32, i32* %4, align 4
  %64 = sext i32 %63 to i64
  %65 = getelementptr inbounds [100 x i8], [100 x i8]* %8, i64 0, i64 %64
  %66 = load i8, i8* %65, align 1
  %67 = sext i8 %66 to i32
  %68 = add nsw i32 10, %67
  %69 = sub nsw i32 %68, 97
  %70 = load i32, i32* %4, align 4
  %71 = sext i32 %70 to i64
  %72 = getelementptr inbounds [100 x i32], [100 x i32]* %11, i64 0, i64 %71
  store i32 %69, i32* %72, align 4
  br label %73

73:                                               ; preds = %62, %55, %48
  %74 = load i32, i32* %4, align 4
  %75 = sext i32 %74 to i64
  %76 = getelementptr inbounds [100 x i8], [100 x i8]* %8, i64 0, i64 %75
  %77 = load i8, i8* %76, align 1
  %78 = sext i8 %77 to i32
  %79 = icmp sge i32 %78, 48
  br i1 %79, label %80, label %97

80:                                               ; preds = %73
  %81 = load i32, i32* %4, align 4
  %82 = sext i32 %81 to i64
  %83 = getelementptr inbounds [100 x i8], [100 x i8]* %8, i64 0, i64 %82
  %84 = load i8, i8* %83, align 1
  %85 = sext i8 %84 to i32
  %86 = icmp sle i32 %85, 57
  br i1 %86, label %87, label %97

87:                                               ; preds = %80
  %88 = load i32, i32* %4, align 4
  %89 = sext i32 %88 to i64
  %90 = getelementptr inbounds [100 x i8], [100 x i8]* %8, i64 0, i64 %89
  %91 = load i8, i8* %90, align 1
  %92 = sext i8 %91 to i32
  %93 = sub nsw i32 %92, 48
  %94 = load i32, i32* %4, align 4
  %95 = sext i32 %94 to i64
  %96 = getelementptr inbounds [100 x i32], [100 x i32]* %11, i64 0, i64 %95
  store i32 %93, i32* %96, align 4
  br label %97

97:                                               ; preds = %87, %80, %73
  br label %98

98:                                               ; preds = %97
  %99 = load i32, i32* %4, align 4
  %100 = add nsw i32 %99, 1
  store i32 %100, i32* %4, align 4
  br label %19

101:                                              ; preds = %19
  store i32 0, i32* %6, align 4
  store i32 0, i32* %4, align 4
  br label %102

102:                                              ; preds = %128, %101
  %103 = load i32, i32* %4, align 4
  %104 = load i32, i32* %3, align 4
  %105 = icmp slt i32 %103, %104
  br i1 %105, label %106, label %131

106:                                              ; preds = %102
  store i32 1, i32* %7, align 4
  store i32 1, i32* %5, align 4
  br label %107

107:                                              ; preds = %113, %106
  %108 = load i32, i32* %5, align 4
  %109 = load i32, i32* %3, align 4
  %110 = load i32, i32* %4, align 4
  %111 = sub nsw i32 %109, %110
  %112 = icmp slt i32 %108, %111
  br i1 %112, label %113, label %119

113:                                              ; preds = %107
  %114 = load i32, i32* %7, align 4
  %115 = load i32, i32* %1, align 4
  %116 = mul nsw i32 %114, %115
  store i32 %116, i32* %7, align 4
  %117 = load i32, i32* %5, align 4
  %118 = add nsw i32 %117, 1
  store i32 %118, i32* %5, align 4
  br label %107

119:                                              ; preds = %107
  %120 = load i32, i32* %6, align 4
  %121 = load i32, i32* %4, align 4
  %122 = sext i32 %121 to i64
  %123 = getelementptr inbounds [100 x i32], [100 x i32]* %11, i64 0, i64 %122
  %124 = load i32, i32* %123, align 4
  %125 = load i32, i32* %7, align 4
  %126 = mul nsw i32 %124, %125
  %127 = add nsw i32 %120, %126
  store i32 %127, i32* %6, align 4
  br label %128

128:                                              ; preds = %119
  %129 = load i32, i32* %4, align 4
  %130 = add nsw i32 %129, 1
  store i32 %130, i32* %4, align 4
  br label %102

131:                                              ; preds = %102
  store i32 0, i32* %4, align 4
  br label %132

132:                                              ; preds = %156, %131
  %133 = load i32, i32* %6, align 4
  %134 = icmp sgt i32 %133, 0
  br i1 %134, label %135, label %157

135:                                              ; preds = %132
  %136 = load i32, i32* %6, align 4
  %137 = load i32, i32* %2, align 4
  %138 = icmp sge i32 %136, %137
  br i1 %138, label %139, label %151

139:                                              ; preds = %135
  %140 = load i32, i32* %6, align 4
  %141 = load i32, i32* %2, align 4
  %142 = srem i32 %140, %141
  %143 = load i32, i32* %4, align 4
  %144 = sext i32 %143 to i64
  %145 = getelementptr inbounds [100 x i32], [100 x i32]* %9, i64 0, i64 %144
  store i32 %142, i32* %145, align 4
  %146 = load i32, i32* %6, align 4
  %147 = load i32, i32* %2, align 4
  %148 = sdiv i32 %146, %147
  store i32 %148, i32* %6, align 4
  %149 = load i32, i32* %4, align 4
  %150 = add nsw i32 %149, 1
  store i32 %150, i32* %4, align 4
  br label %156

151:                                              ; preds = %135
  %152 = load i32, i32* %6, align 4
  %153 = load i32, i32* %4, align 4
  %154 = sext i32 %153 to i64
  %155 = getelementptr inbounds [100 x i32], [100 x i32]* %9, i64 0, i64 %154
  store i32 %152, i32* %155, align 4
  store i32 0, i32* %6, align 4
  br label %156

156:                                              ; preds = %151, %139
  br label %132

157:                                              ; preds = %132
  %158 = load i32, i32* %4, align 4
  %159 = add nsw i32 %158, 1
  store i32 %159, i32* %3, align 4
  store i32 0, i32* %4, align 4
  br label %160

160:                                              ; preds = %198, %157
  %161 = load i32, i32* %4, align 4
  %162 = load i32, i32* %3, align 4
  %163 = icmp slt i32 %161, %162
  br i1 %163, label %164, label %201

164:                                              ; preds = %160
  %165 = load i32, i32* %4, align 4
  %166 = sext i32 %165 to i64
  %167 = getelementptr inbounds [100 x i32], [100 x i32]* %9, i64 0, i64 %166
  %168 = load i32, i32* %167, align 4
  %169 = icmp slt i32 %168, 10
  br i1 %169, label %170, label %183

170:                                              ; preds = %164
  %171 = load i32, i32* %4, align 4
  %172 = sext i32 %171 to i64
  %173 = getelementptr inbounds [100 x i32], [100 x i32]* %9, i64 0, i64 %172
  %174 = load i32, i32* %173, align 4
  %175 = add nsw i32 %174, 48
  %176 = trunc i32 %175 to i8
  %177 = load i32, i32* %3, align 4
  %178 = sub nsw i32 %177, 1
  %179 = load i32, i32* %4, align 4
  %180 = sub nsw i32 %178, %179
  %181 = sext i32 %180 to i64
  %182 = getelementptr inbounds [100 x i8], [100 x i8]* %10, i64 0, i64 %181
  store i8 %176, i8* %182, align 1
  br label %197

183:                                              ; preds = %164
  %184 = load i32, i32* %4, align 4
  %185 = sext i32 %184 to i64
  %186 = getelementptr inbounds [100 x i32], [100 x i32]* %9, i64 0, i64 %185
  %187 = load i32, i32* %186, align 4
  %188 = sub nsw i32 %187, 10
  %189 = add nsw i32 %188, 65
  %190 = trunc i32 %189 to i8
  %191 = load i32, i32* %3, align 4
  %192 = sub nsw i32 %191, 1
  %193 = load i32, i32* %4, align 4
  %194 = sub nsw i32 %192, %193
  %195 = sext i32 %194 to i64
  %196 = getelementptr inbounds [100 x i8], [100 x i8]* %10, i64 0, i64 %195
  store i8 %190, i8* %196, align 1
  br label %197

197:                                              ; preds = %183, %170
  br label %198

198:                                              ; preds = %197
  %199 = load i32, i32* %4, align 4
  %200 = add nsw i32 %199, 1
  store i32 %200, i32* %4, align 4
  br label %160

201:                                              ; preds = %160
  store i32 0, i32* %4, align 4
  br label %202

202:                                              ; preds = %213, %201
  %203 = load i32, i32* %4, align 4
  %204 = load i32, i32* %3, align 4
  %205 = icmp slt i32 %203, %204
  br i1 %205, label %206, label %216

206:                                              ; preds = %202
  %207 = load i32, i32* %4, align 4
  %208 = sext i32 %207 to i64
  %209 = getelementptr inbounds [100 x i8], [100 x i8]* %10, i64 0, i64 %208
  %210 = load i8, i8* %209, align 1
  %211 = sext i8 %210 to i32
  %212 = call i32 (i8*, ...) @printf(i8* getelementptr inbounds ([3 x i8], [3 x i8]* @.str.2, i64 0, i64 0), i32 %211)
  br label %213

213:                                              ; preds = %206
  %214 = load i32, i32* %4, align 4
  %215 = add nsw i32 %214, 1
  store i32 %215, i32* %4, align 4
  br label %202

216:                                              ; preds = %202
  ret void
}